target datalayout = "e-m:e-p270:32:32-p271:32:32-p272:64:64-i64:64-i128:128-f80:128-n8:16:32:64-S128"
target triple = "x86_64-pc-linux-gnu"

; Function Attrs: mustprogress nounwind uwtable
define internal noundef i32 @_ZL12getCompareCCN4llvm7CmpInst9PredicateE(i32 noundef %0) #0 {
  %2 = alloca i32, align 4
  %3 = alloca i32, align 4
  store i32 %0, ptr %3, align 4
  %4 = load i32, ptr %3, align 4
  switch i32 %4, label %6 [
    i32 6, label %5
    i32 9, label %5
    i32 32, label %7
    i32 1, label %7
    i32 38, label %8
    i32 2, label %8
    i32 39, label %9
    i32 3, label %9
    i32 34, label %10
    i32 10, label %10
    i32 4, label %11
    i32 37, label %12
    i32 5, label %12
    i32 7, label %13
    i32 8, label %14
    i32 11, label %15
    i32 40, label %16
    i32 12, label %16
    i32 41, label %17
    i32 13, label %17
    i32 14, label %18
    i32 33, label %18
    i32 35, label %19
    i32 36, label %20
  ]

5:                                                ; preds = %1, %1
  br label %6

6:                                                ; preds = %5, %1
  store i32 14, ptr %2, align 4
  br label %21

7:                                                ; preds = %1, %1
  store i32 0, ptr %2, align 4
  br label %21

8:                                                ; preds = %1, %1
  store i32 12, ptr %2, align 4
  br label %21

9:                                                ; preds = %1, %1
  store i32 10, ptr %2, align 4
  br label %21

10:                                               ; preds = %1, %1
  store i32 8, ptr %2, align 4
  br label %21

11:                                               ; preds = %1
  store i32 4, ptr %2, align 4
  br label %21

12:                                               ; preds = %1, %1
  store i32 9, ptr %2, align 4
  br label %21

13:                                               ; preds = %1
  store i32 7, ptr %2, align 4
  br label %21

14:                                               ; preds = %1
  store i32 6, ptr %2, align 4
  br label %21

15:                                               ; preds = %1
  store i32 5, ptr %2, align 4
  br label %21

16:                                               ; preds = %1, %1
  store i32 11, ptr %2, align 4
  br label %21

17:                                               ; preds = %1, %1
  store i32 13, ptr %2, align 4
  br label %21

18:                                               ; preds = %1, %1
  store i32 1, ptr %2, align 4
  br label %21

19:                                               ; preds = %1
  store i32 2, ptr %2, align 4
  br label %21

20:                                               ; preds = %1
  store i32 3, ptr %2, align 4
  br label %21

21:                                               ; preds = %20, %19, %18, %17, %16, %15, %14, %13, %12, %11, %10, %9, %8, %7, %6
  %22 = load i32, ptr %2, align 4
  ret i32 %22
}