; Function Attrs: mustprogress nofree norecurse nosync nounwind willreturn memory(none) uwtable
define internal fastcc noundef range(i32 0, 15) i32 @_ZL12getCompareCCN4llvm7CmpInst9PredicateE(i32 noundef %0) unnamed_addr #11 {
  %switch.tableidx = add i32 %0, -1
  %2 = icmp ult i32 %switch.tableidx, 41
  br i1 %2, label %switch.lookup, label %4

switch.lookup:                                    ; preds = %1
  %3 = zext nneg i32 %switch.tableidx to i64
  %switch.gep = getelementptr inbounds nuw [41 x i32], ptr @switch.table._ZL12getCompareCCN4llvm7CmpInst9PredicateE, i64 0, i64 %3
  %switch.load = load i32, ptr %switch.gep, align 4
  br label %4

4:                                                ; preds = %switch.lookup, %1
  %.0 = phi i32 [ 14, %1 ], [ %switch.load, %switch.lookup ]
  ret i32 %.0
}